target datalayout = "e-m:e-p270:32:32-p271:32:32-p272:64:64-i64:64-f80:128-n8:16:32:64-S128"
target triple = "x86_64-pc-linux-gnu"

@.str = private unnamed_addr constant [3 x i8] c"%s\00", align 1
@.str.1 = private unnamed_addr constant [2 x i8] c" \00", align 1

; Function Attrs: noinline nounwind uwtable
define dso_local void @main() #0 {
  %1 = alloca i32, align 4
  %2 = alloca i32, align 4
  %3 = alloca i32, align 4
  %4 = alloca [100 x i32], align 16
  %5 = alloca [100 x i32], align 16
  %6 = alloca i8*, align 8
  %7 = alloca [100 x i8*], align 16
  store i32 0, i32* %3, align 4
  %8 = call noalias i8* @malloc(i64 101) #3
  store i8* %8, i8** %6, align 8
  %9 = load i8*, i8** %6, align 8
  %10 = call i32 (i8*, ...) bitcast (i32 (...)* @gets to i32 (i8*, ...)*)(i8* %9)
  store i32 0, i32* %1, align 4
  br label %11

11:                                               ; preds = %19, %0
  %12 = load i32, i32* %1, align 4
  %13 = icmp slt i32 %12, 100
  br i1 %13, label %14, label %22

14:                                               ; preds = %11
  %15 = call noalias i8* @malloc(i64 100) #3
  %16 = load i32, i32* %1, align 4
  %17 = sext i32 %16 to i64
  %18 = getelementptr inbounds [100 x i8*], [100 x i8*]* %7, i64 0, i64 %17
  store i8* %15, i8** %18, align 8
  br label %19

19:                                               ; preds = %14
  %20 = load i32, i32* %1, align 4
  %21 = add nsw i32 %20, 1
  store i32 %21, i32* %1, align 4
  br label %11

22:                                               ; preds = %11
  %23 = getelementptr inbounds [100 x i32], [100 x i32]* %4, i64 0, i64 0
  store i32 0, i32* %23, align 16
  store i32 0, i32* %1, align 4
  br label %24

24:                                               ; preds = %80, %22
  %25 = load i8*, i8** %6, align 8
  %26 = load i32, i32* %1, align 4
  %27 = sext i32 %26 to i64
  %28 = getelementptr inbounds i8, i8* %25, i64 %27
  %29 = load i8, i8* %28, align 1
  %30 = sext i8 %29 to i32
  %31 = icmp ne i32 %30, 0
  br i1 %31, label %32, label %83

32:                                               ; preds = %24
  %33 = load i8*, i8** %6, align 8
  %34 = load i32, i32* %1, align 4
  %35 = sext i32 %34 to i64
  %36 = getelementptr inbounds i8, i8* %33, i64 %35
  %37 = load i8, i8* %36, align 1
  %38 = sext i8 %37 to i32
  %39 = icmp eq i32 %38, 32
  br i1 %39, label %40, label %48

40:                                               ; preds = %32
  %41 = load i32, i32* %1, align 4
  %42 = sub nsw i32 %41, 1
  %43 = load i32, i32* %3, align 4
  %44 = sext i32 %43 to i64
  %45 = getelementptr inbounds [100 x i32], [100 x i32]* %5, i64 0, i64 %44
  store i32 %42, i32* %45, align 4
  %46 = load i32, i32* %3, align 4
  %47 = add nsw i32 %46, 1
  store i32 %47, i32* %3, align 4
  br label %79

48:                                               ; preds = %32
  %49 = load i8*, i8** %6, align 8
  %50 = load i32, i32* %1, align 4
  %51 = sext i32 %50 to i64
  %52 = getelementptr inbounds i8, i8* %49, i64 %51
  %53 = getelementptr inbounds i8, i8* %52, i64 -1
  %54 = load i8, i8* %53, align 1
  %55 = sext i8 %54 to i32
  %56 = icmp eq i32 %55, 32
  br i1 %56, label %57, label %78

57:                                               ; preds = %48
  %58 = load i8*, i8** %6, align 8
  %59 = load i32, i32* %1, align 4
  %60 = sext i32 %59 to i64
  %61 = getelementptr inbounds i8, i8* %58, i64 %60
  %62 = load i8, i8* %61, align 1
  %63 = sext i8 %62 to i32
  %64 = icmp ne i32 %63, 32
  br i1 %64, label %65, label %78

65:                                               ; preds = %57
  %66 = load i8*, i8** %6, align 8
  %67 = load i32, i32* %1, align 4
  %68 = sext i32 %67 to i64
  %69 = getelementptr inbounds i8, i8* %66, i64 %68
  %70 = load i8, i8* %69, align 1
  %71 = sext i8 %70 to i32
  %72 = icmp ne i32 %71, 0
  br i1 %72, label %73, label %78

73:                                               ; preds = %65
  %74 = load i32, i32* %1, align 4
  %75 = load i32, i32* %3, align 4
  %76 = sext i32 %75 to i64
  %77 = getelementptr inbounds [100 x i32], [100 x i32]* %4, i64 0, i64 %76
  store i32 %74, i32* %77, align 4
  br label %78

78:                                               ; preds = %73, %65, %57, %48
  br label %79

79:                                               ; preds = %78, %40
  br label %80

80:                                               ; preds = %79
  %81 = load i32, i32* %1, align 4
  %82 = add nsw i32 %81, 1
  store i32 %82, i32* %1, align 4
  br label %24

83:                                               ; preds = %24
  %84 = load i32, i32* %1, align 4
  %85 = sub nsw i32 %84, 1
  %86 = load i32, i32* %3, align 4
  %87 = sext i32 %86 to i64
  %88 = getelementptr inbounds [100 x i32], [100 x i32]* %5, i64 0, i64 %87
  store i32 %85, i32* %88, align 4
  %89 = load i32, i32* %3, align 4
  %90 = add nsw i32 %89, 1
  store i32 %90, i32* %3, align 4
  store i32 0, i32* %1, align 4
  br label %91

91:                                               ; preds = %129, %83
  %92 = load i32, i32* %1, align 4
  %93 = load i32, i32* %3, align 4
  %94 = icmp slt i32 %92, %93
  br i1 %94, label %95, label %132

95:                                               ; preds = %91
  %96 = load i32, i32* %1, align 4
  %97 = sext i32 %96 to i64
  %98 = getelementptr inbounds [100 x i32], [100 x i32]* %4, i64 0, i64 %97
  %99 = load i32, i32* %98, align 4
  store i32 %99, i32* %2, align 4
  br label %100

100:                                              ; preds = %125, %95
  %101 = load i32, i32* %2, align 4
  %102 = load i32, i32* %1, align 4
  %103 = sext i32 %102 to i64
  %104 = getelementptr inbounds [100 x i32], [100 x i32]* %5, i64 0, i64 %103
  %105 = load i32, i32* %104, align 4
  %106 = icmp sle i32 %101, %105
  br i1 %106, label %107, label %128

107:                                              ; preds = %100
  %108 = load i8*, i8** %6, align 8
  %109 = load i32, i32* %2, align 4
  %110 = sext i32 %109 to i64
  %111 = getelementptr inbounds i8, i8* %108, i64 %110
  %112 = load i8, i8* %111, align 1
  %113 = load i32, i32* %1, align 4
  %114 = sext i32 %113 to i64
  %115 = getelementptr inbounds [100 x i8*], [100 x i8*]* %7, i64 0, i64 %114
  %116 = load i8*, i8** %115, align 8
  %117 = load i32, i32* %2, align 4
  %118 = load i32, i32* %1, align 4
  %119 = sext i32 %118 to i64
  %120 = getelementptr inbounds [100 x i32], [100 x i32]* %4, i64 0, i64 %119
  %121 = load i32, i32* %120, align 4
  %122 = sub nsw i32 %117, %121
  %123 = sext i32 %122 to i64
  %124 = getelementptr inbounds i8, i8* %116, i64 %123
  store i8 %112, i8* %124, align 1
  br label %125

125:                                              ; preds = %107
  %126 = load i32, i32* %2, align 4
  %127 = add nsw i32 %126, 1
  store i32 %127, i32* %2, align 4
  br label %100

128:                                              ; preds = %100
  br label %129

129:                                              ; preds = %128
  %130 = load i32, i32* %1, align 4
  %131 = add nsw i32 %130, 1
  store i32 %131, i32* %1, align 4
  br label %91

132:                                              ; preds = %91
  store i32 0, i32* %1, align 4
  br label %133

133:                                              ; preds = %154, %132
  %134 = load i32, i32* %1, align 4
  %135 = load i32, i32* %3, align 4
  %136 = icmp slt i32 %134, %135
  br i1 %136, label %137, label %157

137:                                              ; preds = %133
  %138 = load i32, i32* %1, align 4
  %139 = sext i32 %138 to i64
  %140 = getelementptr inbounds [100 x i8*], [100 x i8*]* %7, i64 0, i64 %139
  %141 = load i8*, i8** %140, align 8
  %142 = load i32, i32* %1, align 4
  %143 = sext i32 %142 to i64
  %144 = getelementptr inbounds [100 x i32], [100 x i32]* %5, i64 0, i64 %143
  %145 = load i32, i32* %144, align 4
  %146 = load i32, i32* %1, align 4
  %147 = sext i32 %146 to i64
  %148 = getelementptr inbounds [100 x i32], [100 x i32]* %4, i64 0, i64 %147
  %149 = load i32, i32* %148, align 4
  %150 = sub nsw i32 %145, %149
  %151 = add nsw i32 %150, 1
  %152 = sext i32 %151 to i64
  %153 = getelementptr inbounds i8, i8* %141, i64 %152
  store i8 0, i8* %153, align 1
  br label %154

154:                                              ; preds = %137
  %155 = load i32, i32* %1, align 4
  %156 = add nsw i32 %155, 1
  store i32 %156, i32* %1, align 4
  br label %133

157:                                              ; preds = %133
  %158 = load i32, i32* %3, align 4
  %159 = sub nsw i32 %158, 1
  store i32 %159, i32* %1, align 4
  br label %160

160:                                              ; preds = %170, %157
  %161 = load i32, i32* %1, align 4
  %162 = icmp sgt i32 %161, 0
  br i1 %162, label %163, label %173

163:                                              ; preds = %160
  %164 = load i32, i32* %1, align 4
  %165 = sext i32 %164 to i64
  %166 = getelementptr inbounds [100 x i8*], [100 x i8*]* %7, i64 0, i64 %165
  %167 = load i8*, i8** %166, align 8
  %168 = call i32 (i8*, ...) @printf(i8* getelementptr inbounds ([3 x i8], [3 x i8]* @.str, i64 0, i64 0), i8* %167)
  %169 = call i32 (i8*, ...) @printf(i8* getelementptr inbounds ([2 x i8], [2 x i8]* @.str.1, i64 0, i64 0))
  br label %170

170:                                              ; preds = %163
  %171 = load i32, i32* %1, align 4
  %172 = add nsw i32 %171, -1
  store i32 %172, i32* %1, align 4
  br label %160

173:                                              ; preds = %160
  %174 = getelementptr inbounds [100 x i8*], [100 x i8*]* %7, i64 0, i64 0
  %175 = load i8*, i8** %174, align 16
  %176 = call i32 @puts(i8* %175)
  ret void
}